target datalayout = "e-m:e-p270:32:32-p271:32:32-p272:64:64-i64:64-i128:128-f80:128-n8:16:32:64-S128"
target triple = "x86_64-pc-linux-gnu"

%struct.ndef_aux_st = type { ptr, ptr, ptr, ptr, ptr, ptr }

; Function Attrs: nounwind uwtable
define internal i32 @ndef_prefix(ptr noundef %0, ptr noundef %1, ptr noundef %2, ptr noundef %3) #0 {
  %5 = alloca i32, align 4
  %6 = alloca ptr, align 8
  %7 = alloca ptr, align 8
  %8 = alloca ptr, align 8
  %9 = alloca ptr, align 8
  %10 = alloca ptr, align 8
  %11 = alloca ptr, align 8
  %12 = alloca i32, align 4
  %13 = alloca i32, align 4
  store ptr %0, ptr %6, align 8, !tbaa !6
  store ptr %1, ptr %7, align 8, !tbaa !38
  store ptr %2, ptr %8, align 8, !tbaa !39
  store ptr %3, ptr %9, align 8, !tbaa !41
  call void @llvm.lifetime.start.p0(i64 8, ptr %10) #5
  call void @llvm.lifetime.start.p0(i64 8, ptr %11) #5
  call void @llvm.lifetime.start.p0(i64 4, ptr %12) #5
  %14 = load ptr, ptr %9, align 8, !tbaa !41
  %15 = icmp ne ptr %14, null
  br i1 %15, label %17, label %16

16:                                               ; preds = %4
  store i32 0, ptr %5, align 4
  store i32 1, ptr %13, align 4
  br label %64

17:                                               ; preds = %4
  %18 = load ptr, ptr %9, align 8, !tbaa !41
  %19 = load ptr, ptr %18, align 8, !tbaa !15
  store ptr %19, ptr %10, align 8, !tbaa !15
  %20 = load ptr, ptr %10, align 8, !tbaa !15
  %21 = getelementptr inbounds nuw %struct.ndef_aux_st, ptr %20, i32 0, i32 0
  %22 = load ptr, ptr %21, align 8, !tbaa !32
  %23 = load ptr, ptr %10, align 8, !tbaa !15
  %24 = getelementptr inbounds nuw %struct.ndef_aux_st, ptr %23, i32 0, i32 1
  %25 = load ptr, ptr %24, align 8, !tbaa !34
  %26 = call i32 @ASN1_item_ndef_i2d(ptr noundef %22, ptr noundef null, ptr noundef %25)
  store i32 %26, ptr %12, align 4, !tbaa !42
  %27 = load i32, ptr %12, align 4, !tbaa !42
  %28 = sext i32 %27 to i64
  %29 = call noalias ptr @malloc(i64 noundef %28) #6
  store ptr %29, ptr %11, align 8, !tbaa !43
  %30 = load ptr, ptr %11, align 8, !tbaa !43
  %31 = icmp eq ptr %30, null
  br i1 %31, label %32, label %33

32:                                               ; preds = %17
  store i32 0, ptr %5, align 4
  store i32 1, ptr %13, align 4
  br label %64

33:                                               ; preds = %17
  %34 = load ptr, ptr %11, align 8, !tbaa !43
  %35 = load ptr, ptr %10, align 8, !tbaa !15
  %36 = getelementptr inbounds nuw %struct.ndef_aux_st, ptr %35, i32 0, i32 5
  store ptr %34, ptr %36, align 8, !tbaa !44
  %37 = load ptr, ptr %11, align 8, !tbaa !43
  %38 = load ptr, ptr %7, align 8, !tbaa !38
  store ptr %37, ptr %38, align 8, !tbaa !43
  %39 = load ptr, ptr %10, align 8, !tbaa !15
  %40 = getelementptr inbounds nuw %struct.ndef_aux_st, ptr %39, i32 0, i32 0
  %41 = load ptr, ptr %40, align 8, !tbaa !32
  %42 = load ptr, ptr %10, align 8, !tbaa !15
  %43 = getelementptr inbounds nuw %struct.ndef_aux_st, ptr %42, i32 0, i32 1
  %44 = load ptr, ptr %43, align 8, !tbaa !34
  %45 = call i32 @ASN1_item_ndef_i2d(ptr noundef %41, ptr noundef %11, ptr noundef %44)
  store i32 %45, ptr %12, align 4, !tbaa !42
  %46 = load ptr, ptr %10, align 8, !tbaa !15
  %47 = getelementptr inbounds nuw %struct.ndef_aux_st, ptr %46, i32 0, i32 4
  %48 = load ptr, ptr %47, align 8, !tbaa !36
  %49 = load ptr, ptr %48, align 8, !tbaa !43
  %50 = icmp ne ptr %49, null
  br i1 %50, label %52, label %51

51:                                               ; preds = %33
  store i32 0, ptr %5, align 4
  store i32 1, ptr %13, align 4
  br label %64

52:                                               ; preds = %33
  %53 = load ptr, ptr %10, align 8, !tbaa !15
  %54 = getelementptr inbounds nuw %struct.ndef_aux_st, ptr %53, i32 0, i32 4
  %55 = load ptr, ptr %54, align 8, !tbaa !36
  %56 = load ptr, ptr %55, align 8, !tbaa !43
  %57 = load ptr, ptr %7, align 8, !tbaa !38
  %58 = load ptr, ptr %57, align 8, !tbaa !43
  %59 = ptrtoint ptr %56 to i64
  %60 = ptrtoint ptr %58 to i64
  %61 = sub i64 %59, %60
  %62 = trunc i64 %61 to i32
  %63 = load ptr, ptr %8, align 8, !tbaa !39
  store i32 %62, ptr %63, align 4, !tbaa !42
  store i32 1, ptr %5, align 4
  store i32 1, ptr %13, align 4
  br label %64

64:                                               ; preds = %52, %51, %32, %16
  call void @llvm.lifetime.end.p0(i64 4, ptr %12) #5
  call void @llvm.lifetime.end.p0(i64 8, ptr %11) #5
  call void @llvm.lifetime.end.p0(i64 8, ptr %10) #5
  %65 = load i32, ptr %5, align 4
  ret i32 %65
}