; Function Attrs: nounwind uwtable
define internal range(i32 0, 2) i32 @ndef_prefix(ptr readnone captures(none) %0, ptr noundef captures(none) %1, ptr noundef writeonly captures(none) %2, ptr noundef readonly captures(address_is_null) %3) #0 {
  %5 = alloca ptr, align 8
  call void @llvm.lifetime.start.p0(i64 8, ptr nonnull %5) #7
  %.not = icmp eq ptr %3, null
  br i1 %.not, label %29, label %6

6:                                                ; preds = %4
  %7 = load ptr, ptr %3, align 8, !tbaa !32
  %8 = load ptr, ptr %7, align 8, !tbaa !23
  %9 = getelementptr inbounds nuw i8, ptr %7, i64 8
  %10 = load ptr, ptr %9, align 8, !tbaa !26
  %11 = tail call i32 @ASN1_item_ndef_i2d(ptr noundef %8, ptr noundef null, ptr noundef %10) #7
  %12 = sext i32 %11 to i64
  %13 = tail call noalias ptr @malloc(i64 noundef %12) #8
  store ptr %13, ptr %5, align 8, !tbaa !34
  %14 = icmp eq ptr %13, null
  br i1 %14, label %29, label %15

15:                                               ; preds = %6
  %16 = getelementptr inbounds nuw i8, ptr %7, i64 40
  store ptr %13, ptr %16, align 8, !tbaa !35
  store ptr %13, ptr %1, align 8, !tbaa !34
  %17 = load ptr, ptr %7, align 8, !tbaa !23
  %18 = load ptr, ptr %9, align 8, !tbaa !26
  %19 = call i32 @ASN1_item_ndef_i2d(ptr noundef %17, ptr noundef nonnull %5, ptr noundef %18) #7
  %20 = getelementptr inbounds nuw i8, ptr %7, i64 32
  %21 = load ptr, ptr %20, align 8, !tbaa !30
  %22 = load ptr, ptr %21, align 8, !tbaa !34
  %.not16 = icmp eq ptr %22, null
  br i1 %.not16, label %29, label %23

23:                                               ; preds = %15
  %24 = load ptr, ptr %1, align 8, !tbaa !34
  %25 = ptrtoint ptr %22 to i64
  %26 = ptrtoint ptr %24 to i64
  %27 = sub i64 %25, %26
  %28 = trunc i64 %27 to i32
  store i32 %28, ptr %2, align 4, !tbaa !36
  br label %29

29:                                               ; preds = %15, %6, %4, %23
  %.0 = phi i32 [ 1, %23 ], [ 0, %4 ], [ 0, %6 ], [ 0, %15 ]
  call void @llvm.lifetime.end.p0(i64 8, ptr nonnull %5) #7
  ret i32 %.0
}